target datalayout = "e-m:e-p270:32:32-p271:32:32-p272:64:64-i64:64-i128:128-f80:128-n8:16:32:64-S128"
target triple = "x86_64-pc-linux-gnu"

; Function Attrs: mustprogress nounwind uwtable
define hidden noundef zeroext i1 @_ZNK13XBarrierSetC231array_copy_requires_gc_barriersEb9BasicTypebbN12BarrierSetC214ArrayCopyPhaseE(ptr noundef nonnull align 8 dereferenceable(8) %0, i1 noundef zeroext %1, i8 noundef zeroext %2, i1 noundef zeroext %3, i1 noundef zeroext %4, i32 noundef %5) unnamed_addr #1 align 2 {
  %7 = alloca i1, align 1
  %8 = alloca ptr, align 8
  %9 = alloca i8, align 1
  %10 = alloca i8, align 1
  %11 = alloca i8, align 1
  %12 = alloca i8, align 1
  %13 = alloca i32, align 4
  store ptr %0, ptr %8, align 8
  %14 = zext i1 %1 to i8
  store i8 %14, ptr %9, align 1
  store i8 %2, ptr %10, align 1
  %15 = zext i1 %3 to i8
  store i8 %15, ptr %11, align 1
  %16 = zext i1 %4 to i8
  store i8 %16, ptr %12, align 1
  store i32 %5, ptr %13, align 4
  %17 = load i32, ptr %13, align 4
  %18 = icmp eq i32 %17, 0
  br i1 %18, label %19, label %20

19:                                               ; preds = %6
  store i1 false, ptr %7, align 1
  br label %36

20:                                               ; preds = %6
  %21 = load i32, ptr %13, align 4
  %22 = icmp eq i32 %21, 1
  br i1 %22, label %23, label %26

23:                                               ; preds = %20
  %24 = load i8, ptr %12, align 1
  %25 = trunc i8 %24 to i1
  store i1 %25, ptr %7, align 1
  br label %36

26:                                               ; preds = %20
  %27 = load i8, ptr %10, align 1
  %28 = zext i8 %27 to i32
  %29 = icmp eq i32 %28, 12
  br i1 %29, label %34, label %30

30:                                               ; preds = %26
  %31 = load i8, ptr %10, align 1
  %32 = zext i8 %31 to i32
  %33 = icmp eq i32 %32, 13
  br label %34

34:                                               ; preds = %30, %26
  %35 = phi i1 [ true, %26 ], [ %33, %30 ]
  store i1 %35, ptr %7, align 1
  br label %36

36:                                               ; preds = %34, %23, %19
  %37 = load i1, ptr %7, align 1
  ret i1 %37
}