; Function Attrs: mustprogress nofree norecurse nosync nounwind willreturn memory(none) uwtable
define hidden noundef zeroext i1 @_ZNK13XBarrierSetC231array_copy_requires_gc_barriersEb9BasicTypebbN12BarrierSetC214ArrayCopyPhaseE(ptr nocapture nonnull readnone align 8 %0, i1 zeroext %1, i8 noundef zeroext %2, i1 zeroext %3, i1 noundef zeroext %4, i32 noundef %5) unnamed_addr #6 align 2 {
  switch i32 %5, label %8 [
    i32 0, label %11
    i32 1, label %7
  ]

7:                                                ; preds = %6
  br label %11

8:                                                ; preds = %6
  %9 = and i8 %2, -2
  %10 = icmp eq i8 %9, 12
  br label %11

11:                                               ; preds = %6, %8, %7
  %.0 = phi i1 [ %4, %7 ], [ %10, %8 ], [ false, %6 ]
  ret i1 %.0
}